target datalayout = "e-m:e-p270:32:32-p271:32:32-p272:64:64-i64:64-i128:128-f80:128-n8:16:32:64-S128"
target triple = "x86_64-pc-linux-gnu"

%struct.pm_integer_t = type { i64, ptr, i32, i8 }

; Function Attrs: nounwind sspstrong uwtable
define hidden void @pm_integers_reduce(ptr noundef %0, ptr noundef %1) #0 {
  %3 = alloca ptr, align 8
  %4 = alloca ptr, align 8
  %5 = alloca i32, align 4
  %6 = alloca i32, align 4
  %7 = alloca i32, align 4
  store ptr %0, ptr %3, align 8, !tbaa !7
  store ptr %1, ptr %4, align 8, !tbaa !7
  %8 = load ptr, ptr %3, align 8, !tbaa !7
  %9 = getelementptr inbounds nuw %struct.pm_integer_t, ptr %8, i32 0, i32 0
  %10 = load i64, ptr %9, align 8, !tbaa !30
  %11 = icmp ne i64 %10, 0
  br i1 %11, label %27, label %12

12:                                               ; preds = %2
  %13 = load ptr, ptr %4, align 8, !tbaa !7
  %14 = getelementptr inbounds nuw %struct.pm_integer_t, ptr %13, i32 0, i32 0
  %15 = load i64, ptr %14, align 8, !tbaa !30
  %16 = icmp ne i64 %15, 0
  br i1 %16, label %27, label %17

17:                                               ; preds = %12
  %18 = load ptr, ptr %3, align 8, !tbaa !7
  %19 = getelementptr inbounds nuw %struct.pm_integer_t, ptr %18, i32 0, i32 2
  %20 = load i32, ptr %19, align 8, !tbaa !21
  %21 = icmp eq i32 %20, 0
  br i1 %21, label %27, label %22

22:                                               ; preds = %17
  %23 = load ptr, ptr %4, align 8, !tbaa !7
  %24 = getelementptr inbounds nuw %struct.pm_integer_t, ptr %23, i32 0, i32 2
  %25 = load i32, ptr %24, align 8, !tbaa !21
  %26 = icmp eq i32 %25, 1
  br i1 %26, label %27, label %28

27:                                               ; preds = %22, %17, %12, %2
  br label %55

28:                                               ; preds = %22
  call void @llvm.lifetime.start.p0(i64 4, ptr %5) #10
  %29 = load ptr, ptr %3, align 8, !tbaa !7
  %30 = getelementptr inbounds nuw %struct.pm_integer_t, ptr %29, i32 0, i32 2
  %31 = load i32, ptr %30, align 8, !tbaa !21
  store i32 %31, ptr %5, align 4, !tbaa !11
  call void @llvm.lifetime.start.p0(i64 4, ptr %6) #10
  %32 = load ptr, ptr %4, align 8, !tbaa !7
  %33 = getelementptr inbounds nuw %struct.pm_integer_t, ptr %32, i32 0, i32 2
  %34 = load i32, ptr %33, align 8, !tbaa !21
  store i32 %34, ptr %6, align 4, !tbaa !11
  br label %35

35:                                               ; preds = %38, %28
  %36 = load i32, ptr %6, align 4, !tbaa !11
  %37 = icmp ne i32 %36, 0
  br i1 %37, label %38, label %44

38:                                               ; preds = %35
  call void @llvm.lifetime.start.p0(i64 4, ptr %7) #10
  %39 = load i32, ptr %6, align 4, !tbaa !11
  store i32 %39, ptr %7, align 4, !tbaa !11
  %40 = load i32, ptr %5, align 4, !tbaa !11
  %41 = load i32, ptr %6, align 4, !tbaa !11
  %42 = urem i32 %40, %41
  store i32 %42, ptr %6, align 4, !tbaa !11
  %43 = load i32, ptr %7, align 4, !tbaa !11
  store i32 %43, ptr %5, align 4, !tbaa !11
  call void @llvm.lifetime.end.p0(i64 4, ptr %7) #10
  br label %35, !llvm.loop !32

44:                                               ; preds = %35
  %45 = load i32, ptr %5, align 4, !tbaa !11
  %46 = load ptr, ptr %3, align 8, !tbaa !7
  %47 = getelementptr inbounds nuw %struct.pm_integer_t, ptr %46, i32 0, i32 2
  %48 = load i32, ptr %47, align 8, !tbaa !21
  %49 = udiv i32 %48, %45
  store i32 %49, ptr %47, align 8, !tbaa !21
  %50 = load i32, ptr %5, align 4, !tbaa !11
  %51 = load ptr, ptr %4, align 8, !tbaa !7
  %52 = getelementptr inbounds nuw %struct.pm_integer_t, ptr %51, i32 0, i32 2
  %53 = load i32, ptr %52, align 8, !tbaa !21
  %54 = udiv i32 %53, %50
  store i32 %54, ptr %52, align 8, !tbaa !21
  call void @llvm.lifetime.end.p0(i64 4, ptr %6) #10
  call void @llvm.lifetime.end.p0(i64 4, ptr %5) #10
  br label %55

55:                                               ; preds = %44, %27
  ret void
}