; Function Attrs: nofree norecurse nosync nounwind sspstrong memory(argmem: readwrite) uwtable
define hidden void @pm_integers_reduce(ptr noundef captures(none) %0, ptr noundef captures(none) %1) local_unnamed_addr #3 {
  %3 = load i64, ptr %0, align 8, !tbaa !16
  %.not = icmp eq i64 %3, 0
  br i1 %.not, label %4, label %17

4:                                                ; preds = %2
  %5 = load i64, ptr %1, align 8, !tbaa !16
  %.not17 = icmp eq i64 %5, 0
  br i1 %.not17, label %6, label %17

6:                                                ; preds = %4
  %7 = getelementptr inbounds nuw i8, ptr %0, i64 16
  %8 = load i32, ptr %7, align 8, !tbaa !30
  %9 = icmp eq i32 %8, 0
  br i1 %9, label %17, label %10

10:                                               ; preds = %6
  %11 = getelementptr inbounds nuw i8, ptr %1, i64 16
  %12 = load i32, ptr %11, align 8, !tbaa !30
  switch i32 %12, label %.lr.ph [
    i32 1, label %17
    i32 0, label %._crit_edge
  ]

.lr.ph:                                           ; preds = %10, %.lr.ph
  %.021 = phi i32 [ %.01420, %.lr.ph ], [ %8, %10 ]
  %.01420 = phi i32 [ %13, %.lr.ph ], [ %12, %10 ]
  %13 = urem i32 %.021, %.01420
  %.not18 = icmp eq i32 %13, 0
  br i1 %.not18, label %._crit_edge, label %.lr.ph, !llvm.loop !35

._crit_edge:                                      ; preds = %.lr.ph, %10
  %.0.lcssa = phi i32 [ %8, %10 ], [ %.01420, %.lr.ph ]
  %14 = udiv i32 %8, %.0.lcssa
  store i32 %14, ptr %7, align 8, !tbaa !30
  %15 = load i32, ptr %11, align 8, !tbaa !30
  %16 = udiv i32 %15, %.0.lcssa
  store i32 %16, ptr %11, align 8, !tbaa !30
  br label %17

17:                                               ; preds = %10, %2, %4, %6, %._crit_edge
  ret void
}